target datalayout = "e-m:e-p270:32:32-p271:32:32-p272:64:64-i64:64-i128:128-f80:128-n8:16:32:64-S128"
target triple = "x86_64-pc-linux-gnu"

%struct.OSQPCscMatrix = type { i64, i64, ptr, ptr, ptr, i64, i64 }

; Function Attrs: nounwind uwtable
define void @vec_set_scalar(ptr noundef %0, double noundef %1, i64 noundef %2) #0 {
  %4 = alloca ptr, align 8
  %5 = alloca double, align 8
  %6 = alloca i64, align 8
  %7 = alloca i64, align 8
  store ptr %0, ptr %4, align 8, !tbaa !3
  store double %1, ptr %5, align 8, !tbaa !8
  store i64 %2, ptr %6, align 8, !tbaa !10
  call void @llvm.lifetime.start.p0(i64 8, ptr %7) #3
  store i64 0, ptr %7, align 8, !tbaa !10
  br label %8

8:                                                ; preds = %17, %3
  %9 = load i64, ptr %7, align 8, !tbaa !10
  %10 = load i64, ptr %6, align 8, !tbaa !10
  %11 = icmp slt i64 %9, %10
  br i1 %11, label %12, label %20

12:                                               ; preds = %8
  %13 = load double, ptr %5, align 8, !tbaa !8
  %14 = load ptr, ptr %4, align 8, !tbaa !3
  %15 = load i64, ptr %7, align 8, !tbaa !10
  %16 = getelementptr inbounds double, ptr %14, i64 %15
  store double %13, ptr %16, align 8, !tbaa !8
  br label %17

17:                                               ; preds = %12
  %18 = load i64, ptr %7, align 8, !tbaa !10
  %19 = add nsw i64 %18, 1
  store i64 %19, ptr %7, align 8, !tbaa !10
  br label %8, !llvm.loop !12

20:                                               ; preds = %8
  call void @llvm.lifetime.end.p0(i64 8, ptr %7) #3
  ret void
}

; Function Attrs: nounwind uwtable
define void @csc_row_norm_inf_sym_triu(ptr noundef %0, ptr noundef %1) #0 {
  %3 = alloca ptr, align 8
  %4 = alloca ptr, align 8
  %5 = alloca i64, align 8
  %6 = alloca i64, align 8
  %7 = alloca i64, align 8
  %8 = alloca ptr, align 8
  %9 = alloca ptr, align 8
  %10 = alloca i64, align 8
  %11 = alloca i64, align 8
  %12 = alloca ptr, align 8
  %13 = alloca double, align 8
  store ptr %0, ptr %3, align 8, !tbaa !16
  store ptr %1, ptr %4, align 8, !tbaa !3
  call void @llvm.lifetime.start.p0(i64 8, ptr %5) #3
  call void @llvm.lifetime.start.p0(i64 8, ptr %6) #3
  call void @llvm.lifetime.start.p0(i64 8, ptr %7) #3
  call void @llvm.lifetime.start.p0(i64 8, ptr %8) #3
  %14 = load ptr, ptr %3, align 8, !tbaa !16
  %15 = getelementptr inbounds nuw %struct.OSQPCscMatrix, ptr %14, i32 0, i32 2
  %16 = load ptr, ptr %15, align 8, !tbaa !23
  store ptr %16, ptr %8, align 8, !tbaa !17
  call void @llvm.lifetime.start.p0(i64 8, ptr %9) #3
  %17 = load ptr, ptr %3, align 8, !tbaa !16
  %18 = getelementptr inbounds nuw %struct.OSQPCscMatrix, ptr %17, i32 0, i32 3
  %19 = load ptr, ptr %18, align 8, !tbaa !26
  store ptr %19, ptr %9, align 8, !tbaa !17
  call void @llvm.lifetime.start.p0(i64 8, ptr %10) #3
  %20 = load ptr, ptr %3, align 8, !tbaa !16
  %21 = getelementptr inbounds nuw %struct.OSQPCscMatrix, ptr %20, i32 0, i32 1
  %22 = load i64, ptr %21, align 8, !tbaa !24
  store i64 %22, ptr %10, align 8, !tbaa !10
  call void @llvm.lifetime.start.p0(i64 8, ptr %11) #3
  %23 = load ptr, ptr %3, align 8, !tbaa !16
  %24 = getelementptr inbounds nuw %struct.OSQPCscMatrix, ptr %23, i32 0, i32 0
  %25 = load i64, ptr %24, align 8, !tbaa !33
  store i64 %25, ptr %11, align 8, !tbaa !10
  call void @llvm.lifetime.start.p0(i64 8, ptr %12) #3
  %26 = load ptr, ptr %3, align 8, !tbaa !16
  %27 = getelementptr inbounds nuw %struct.OSQPCscMatrix, ptr %26, i32 0, i32 4
  %28 = load ptr, ptr %27, align 8, !tbaa !19
  store ptr %28, ptr %12, align 8, !tbaa !3
  call void @llvm.lifetime.start.p0(i64 8, ptr %13) #3
  %29 = load ptr, ptr %4, align 8, !tbaa !3
  %30 = load i64, ptr %11, align 8, !tbaa !10
  call void @vec_set_scalar(ptr noundef %29, double noundef 0.000000e+00, i64 noundef %30)
  store i64 0, ptr %6, align 8, !tbaa !10
  br label %31

31:                                               ; preds = %116, %2
  %32 = load i64, ptr %6, align 8, !tbaa !10
  %33 = load i64, ptr %10, align 8, !tbaa !10
  %34 = icmp slt i64 %32, %33
  br i1 %34, label %35, label %119

35:                                               ; preds = %31
  %36 = load ptr, ptr %8, align 8, !tbaa !17
  %37 = load i64, ptr %6, align 8, !tbaa !10
  %38 = getelementptr inbounds i64, ptr %36, i64 %37
  %39 = load i64, ptr %38, align 8, !tbaa !10
  store i64 %39, ptr %7, align 8, !tbaa !10
  br label %40

40:                                               ; preds = %112, %35
  %41 = load i64, ptr %7, align 8, !tbaa !10
  %42 = load ptr, ptr %8, align 8, !tbaa !17
  %43 = load i64, ptr %6, align 8, !tbaa !10
  %44 = add nsw i64 %43, 1
  %45 = getelementptr inbounds i64, ptr %42, i64 %44
  %46 = load i64, ptr %45, align 8, !tbaa !10
  %47 = icmp slt i64 %41, %46
  br i1 %47, label %48, label %115

48:                                               ; preds = %40
  %49 = load ptr, ptr %9, align 8, !tbaa !17
  %50 = load i64, ptr %7, align 8, !tbaa !10
  %51 = getelementptr inbounds i64, ptr %49, i64 %50
  %52 = load i64, ptr %51, align 8, !tbaa !10
  store i64 %52, ptr %5, align 8, !tbaa !10
  %53 = load ptr, ptr %12, align 8, !tbaa !3
  %54 = load i64, ptr %7, align 8, !tbaa !10
  %55 = getelementptr inbounds double, ptr %53, i64 %54
  %56 = load double, ptr %55, align 8, !tbaa !8
  %57 = fcmp olt double %56, 0.000000e+00
  br i1 %57, label %58, label %64

58:                                               ; preds = %48
  %59 = load ptr, ptr %12, align 8, !tbaa !3
  %60 = load i64, ptr %7, align 8, !tbaa !10
  %61 = getelementptr inbounds double, ptr %59, i64 %60
  %62 = load double, ptr %61, align 8, !tbaa !8
  %63 = fneg double %62
  br label %69

64:                                               ; preds = %48
  %65 = load ptr, ptr %12, align 8, !tbaa !3
  %66 = load i64, ptr %7, align 8, !tbaa !10
  %67 = getelementptr inbounds double, ptr %65, i64 %66
  %68 = load double, ptr %67, align 8, !tbaa !8
  br label %69

69:                                               ; preds = %64, %58
  %70 = phi double [ %63, %58 ], [ %68, %64 ]
  store double %70, ptr %13, align 8, !tbaa !8
  %71 = load double, ptr %13, align 8, !tbaa !8
  %72 = load ptr, ptr %4, align 8, !tbaa !3
  %73 = load i64, ptr %6, align 8, !tbaa !10
  %74 = getelementptr inbounds double, ptr %72, i64 %73
  %75 = load double, ptr %74, align 8, !tbaa !8
  %76 = fcmp ogt double %71, %75
  br i1 %76, label %77, label %79

77:                                               ; preds = %69
  %78 = load double, ptr %13, align 8, !tbaa !8
  br label %84

79:                                               ; preds = %69
  %80 = load ptr, ptr %4, align 8, !tbaa !3
  %81 = load i64, ptr %6, align 8, !tbaa !10
  %82 = getelementptr inbounds double, ptr %80, i64 %81
  %83 = load double, ptr %82, align 8, !tbaa !8
  br label %84

84:                                               ; preds = %79, %77
  %85 = phi double [ %78, %77 ], [ %83, %79 ]
  %86 = load ptr, ptr %4, align 8, !tbaa !3
  %87 = load i64, ptr %6, align 8, !tbaa !10
  %88 = getelementptr inbounds double, ptr %86, i64 %87
  store double %85, ptr %88, align 8, !tbaa !8
  %89 = load i64, ptr %5, align 8, !tbaa !10
  %90 = load i64, ptr %6, align 8, !tbaa !10
  %91 = icmp ne i64 %89, %90
  br i1 %91, label %92, label %111

92:                                               ; preds = %84
  %93 = load double, ptr %13, align 8, !tbaa !8
  %94 = load ptr, ptr %4, align 8, !tbaa !3
  %95 = load i64, ptr %5, align 8, !tbaa !10
  %96 = getelementptr inbounds double, ptr %94, i64 %95
  %97 = load double, ptr %96, align 8, !tbaa !8
  %98 = fcmp ogt double %93, %97
  br i1 %98, label %99, label %101

99:                                               ; preds = %92
  %100 = load double, ptr %13, align 8, !tbaa !8
  br label %106

101:                                              ; preds = %92
  %102 = load ptr, ptr %4, align 8, !tbaa !3
  %103 = load i64, ptr %5, align 8, !tbaa !10
  %104 = getelementptr inbounds double, ptr %102, i64 %103
  %105 = load double, ptr %104, align 8, !tbaa !8
  br label %106

106:                                              ; preds = %101, %99
  %107 = phi double [ %100, %99 ], [ %105, %101 ]
  %108 = load ptr, ptr %4, align 8, !tbaa !3
  %109 = load i64, ptr %5, align 8, !tbaa !10
  %110 = getelementptr inbounds double, ptr %108, i64 %109
  store double %107, ptr %110, align 8, !tbaa !8
  br label %111

111:                                              ; preds = %106, %84
  br label %112

112:                                              ; preds = %111
  %113 = load i64, ptr %7, align 8, !tbaa !10
  %114 = add nsw i64 %113, 1
  store i64 %114, ptr %7, align 8, !tbaa !10
  br label %40, !llvm.loop !56

115:                                              ; preds = %40
  br label %116

116:                                              ; preds = %115
  %117 = load i64, ptr %6, align 8, !tbaa !10
  %118 = add nsw i64 %117, 1
  store i64 %118, ptr %6, align 8, !tbaa !10
  br label %31, !llvm.loop !57

119:                                              ; preds = %31
  call void @llvm.lifetime.end.p0(i64 8, ptr %13) #3
  call void @llvm.lifetime.end.p0(i64 8, ptr %12) #3
  call void @llvm.lifetime.end.p0(i64 8, ptr %11) #3
  call void @llvm.lifetime.end.p0(i64 8, ptr %10) #3
  call void @llvm.lifetime.end.p0(i64 8, ptr %9) #3
  call void @llvm.lifetime.end.p0(i64 8, ptr %8) #3
  call void @llvm.lifetime.end.p0(i64 8, ptr %7) #3
  call void @llvm.lifetime.end.p0(i64 8, ptr %6) #3
  call void @llvm.lifetime.end.p0(i64 8, ptr %5) #3
  ret void
}