; Function Attrs: nofree norecurse nosync nounwind memory(read, argmem: readwrite, inaccessiblemem: none) uwtable
define void @csc_row_norm_inf_sym_triu(ptr noundef readonly captures(none) %0, ptr noundef captures(none) %1) local_unnamed_addr #4 {
  %3 = getelementptr inbounds nuw i8, ptr %0, i64 16
  %4 = load ptr, ptr %3, align 8, !tbaa !20
  %5 = getelementptr inbounds nuw i8, ptr %0, i64 24
  %6 = load ptr, ptr %5, align 8, !tbaa !23
  %7 = getelementptr inbounds nuw i8, ptr %0, i64 8
  %8 = load i64, ptr %7, align 8, !tbaa !21
  %9 = load i64, ptr %0, align 8, !tbaa !30
  %10 = getelementptr inbounds nuw i8, ptr %0, i64 32
  %11 = load ptr, ptr %10, align 8, !tbaa !11
  %12 = icmp sgt i64 %9, 0
  br i1 %12, label %.lr.ph.i.preheader, label %vec_set_scalar.exit

.lr.ph.i.preheader:                               ; preds = %2
  %13 = shl nuw i64 %9, 3
  tail call void @llvm.memset.p0.i64(ptr align 8 %1, i8 0, i64 %13, i1 false), !tbaa !3
  br label %vec_set_scalar.exit

vec_set_scalar.exit:                              ; preds = %.lr.ph.i.preheader, %2
  %14 = icmp sgt i64 %8, 0
  br i1 %14, label %.lr.ph50.preheader, label %._crit_edge

.lr.ph50.preheader:                               ; preds = %vec_set_scalar.exit
  %.pre = load i64, ptr %4, align 8, !tbaa !17
  br label %.lr.ph50

.loopexit:                                        ; preds = %36, %.lr.ph50
  %exitcond51.not = icmp eq i64 %16, %8
  br i1 %exitcond51.not, label %._crit_edge, label %.lr.ph50, !llvm.loop !53

.lr.ph50:                                         ; preds = %.lr.ph50.preheader, %.loopexit
  %15 = phi i64 [ %18, %.loopexit ], [ %.pre, %.lr.ph50.preheader ]
  %.049 = phi i64 [ %16, %.loopexit ], [ 0, %.lr.ph50.preheader ]
  %16 = add nuw nsw i64 %.049, 1
  %17 = getelementptr inbounds nuw i64, ptr %4, i64 %16
  %18 = load i64, ptr %17, align 8, !tbaa !17
  %19 = icmp slt i64 %15, %18
  br i1 %19, label %.lr.ph, label %.loopexit

.lr.ph:                                           ; preds = %.lr.ph50
  %20 = getelementptr inbounds nuw double, ptr %1, i64 %.049
  br label %21

21:                                               ; preds = %.lr.ph, %36
  %.04148 = phi i64 [ %15, %.lr.ph ], [ %37, %36 ]
  %22 = getelementptr inbounds i64, ptr %6, i64 %.04148
  %23 = load i64, ptr %22, align 8, !tbaa !17
  %24 = getelementptr inbounds double, ptr %11, i64 %.04148
  %25 = load double, ptr %24, align 8, !tbaa !3
  %26 = fcmp olt double %25, 0.000000e+00
  %27 = fneg double %25
  %28 = select i1 %26, double %27, double %25
  %29 = load double, ptr %20, align 8, !tbaa !3
  %30 = fcmp ogt double %28, %29
  %31 = select i1 %30, double %28, double %29
  store double %31, ptr %20, align 8, !tbaa !3
  %.not = icmp eq i64 %23, %.049
  br i1 %.not, label %36, label %32

32:                                               ; preds = %21
  %33 = getelementptr inbounds double, ptr %1, i64 %23
  %34 = load double, ptr %33, align 8, !tbaa !3
  %35 = fcmp ogt double %28, %34
  %. = select i1 %35, double %28, double %34
  store double %., ptr %33, align 8, !tbaa !3
  br label %36

36:                                               ; preds = %21, %32
  %37 = add nsw i64 %.04148, 1
  %exitcond.not = icmp eq i64 %37, %18
  br i1 %exitcond.not, label %.loopexit, label %21, !llvm.loop !54

._crit_edge:                                      ; preds = %.loopexit, %vec_set_scalar.exit
  ret void
}